; ModuleID = '29/279.c'
source_filename = "29/279.c"
target datalayout = "e-m:e-p270:32:32-p271:32:32-p272:64:64-i64:64-f80:128-n8:16:32:64-S128"
target triple = "x86_64-pc-linux-gnu"

@.str = private unnamed_addr constant [3 x i8] c"%d\00", align 1
@.str.1 = private unnamed_addr constant [6 x i8] c"%.3f\0A\00", align 1

; Function Attrs: noinline nounwind uwtable
define dso_local i32 @main() #0 {
  %1 = alloca i32, align 4
  %2 = alloca i32, align 4
  %3 = alloca i32, align 4
  %4 = alloca [100 x i32], align 16
  %5 = alloca [100 x i32], align 16
  %6 = alloca i32, align 4
  %7 = alloca i32, align 4
  %8 = alloca [200 x double], align 16
  %9 = alloca [200 x double], align 16
  %10 = alloca [200 x double], align 16
  %11 = alloca double, align 8
  store i32 0, i32* %1, align 4
  store double 0.000000e+00, double* %11, align 8
  %12 = call i32 (i8*, ...) @__isoc99_scanf(i8* getelementptr inbounds ([3 x i8], [3 x i8]* @.str, i64 0, i64 0), i32* %2)
  store i32 0, i32* %6, align 4
  br label %13

13:                                               ; preds = %22, %0
  %14 = load i32, i32* %6, align 4
  %15 = load i32, i32* %2, align 4
  %16 = icmp slt i32 %14, %15
  br i1 %16, label %17, label %25

17:                                               ; preds = %13
  %18 = load i32, i32* %6, align 4
  %19 = sext i32 %18 to i64
  %20 = getelementptr inbounds [100 x i32], [100 x i32]* %5, i64 0, i64 %19
  %21 = call i32 (i8*, ...) @__isoc99_scanf(i8* getelementptr inbounds ([3 x i8], [3 x i8]* @.str, i64 0, i64 0), i32* %20)
  br label %22

22:                                               ; preds = %17
  %23 = load i32, i32* %6, align 4
  %24 = add nsw i32 %23, 1
  store i32 %24, i32* %6, align 4
  br label %13

25:                                               ; preds = %13
  %26 = getelementptr inbounds [200 x double], [200 x double]* %8, i64 0, i64 0
  store double 2.000000e+00, double* %26, align 16
  %27 = getelementptr inbounds [200 x double], [200 x double]* %9, i64 0, i64 0
  store double 1.000000e+00, double* %27, align 16
  store i32 0, i32* %6, align 4
  br label %28

28:                                               ; preds = %88, %25
  %29 = load i32, i32* %6, align 4
  %30 = load i32, i32* %2, align 4
  %31 = icmp slt i32 %29, %30
  br i1 %31, label %32, label %91

32:                                               ; preds = %28
  store i32 1, i32* %7, align 4
  br label %33

33:                                               ; preds = %81, %32
  %34 = load i32, i32* %7, align 4
  %35 = load i32, i32* %6, align 4
  %36 = sext i32 %35 to i64
  %37 = getelementptr inbounds [100 x i32], [100 x i32]* %5, i64 0, i64 %36
  %38 = load i32, i32* %37, align 4
  %39 = icmp slt i32 %34, %38
  br i1 %39, label %40, label %84

40:                                               ; preds = %33
  %41 = load i32, i32* %7, align 4
  %42 = sub nsw i32 %41, 1
  %43 = sext i32 %42 to i64
  %44 = getelementptr inbounds [200 x double], [200 x double]* %8, i64 0, i64 %43
  %45 = load double, double* %44, align 8
  %46 = load i32, i32* %7, align 4
  %47 = sub nsw i32 %46, 1
  %48 = sext i32 %47 to i64
  %49 = getelementptr inbounds [200 x double], [200 x double]* %9, i64 0, i64 %48
  %50 = load double, double* %49, align 8
  %51 = fadd double %45, %50
  %52 = load i32, i32* %7, align 4
  %53 = sext i32 %52 to i64
  %54 = getelementptr inbounds [200 x double], [200 x double]* %8, i64 0, i64 %53
  store double %51, double* %54, align 8
  %55 = load i32, i32* %7, align 4
  %56 = sub nsw i32 %55, 1
  %57 = sext i32 %56 to i64
  %58 = getelementptr inbounds [200 x double], [200 x double]* %8, i64 0, i64 %57
  %59 = load double, double* %58, align 8
  %60 = load i32, i32* %7, align 4
  %61 = sext i32 %60 to i64
  %62 = getelementptr inbounds [200 x double], [200 x double]* %9, i64 0, i64 %61
  store double %59, double* %62, align 8
  %63 = load i32, i32* %7, align 4
  %64 = sext i32 %63 to i64
  %65 = getelementptr inbounds [200 x double], [200 x double]* %8, i64 0, i64 %64
  %66 = load double, double* %65, align 8
  %67 = load i32, i32* %7, align 4
  %68 = sext i32 %67 to i64
  %69 = getelementptr inbounds [200 x double], [200 x double]* %9, i64 0, i64 %68
  %70 = load double, double* %69, align 8
  %71 = fdiv double %66, %70
  %72 = load i32, i32* %7, align 4
  %73 = sext i32 %72 to i64
  %74 = getelementptr inbounds [200 x double], [200 x double]* %10, i64 0, i64 %73
  store double %71, double* %74, align 8
  %75 = load i32, i32* %7, align 4
  %76 = sext i32 %75 to i64
  %77 = getelementptr inbounds [200 x double], [200 x double]* %10, i64 0, i64 %76
  %78 = load double, double* %77, align 8
  %79 = load double, double* %11, align 8
  %80 = fadd double %79, %78
  store double %80, double* %11, align 8
  br label %81

81:                                               ; preds = %40
  %82 = load i32, i32* %7, align 4
  %83 = add nsw i32 %82, 1
  store i32 %83, i32* %7, align 4
  br label %33

84:                                               ; preds = %33
  %85 = load double, double* %11, align 8
  %86 = fadd double %85, 2.000000e+00
  %87 = call i32 (i8*, ...) @printf(i8* getelementptr inbounds ([6 x i8], [6 x i8]* @.str.1, i64 0, i64 0), double %86)
  store double 0.000000e+00, double* %11, align 8
  br label %88

88:                                               ; preds = %84
  %89 = load i32, i32* %6, align 4
  %90 = add nsw i32 %89, 1
  store i32 %90, i32* %6, align 4
  br label %28

91:                                               ; preds = %28
  ret i32 0
}

declare dso_local i32 @__isoc99_scanf(i8*, ...) #1

declare dso_local i32 @printf(i8*, ...) #1


!llvm.module.flags = !{!0}
!llvm.ident = !{!1}

!0 = !{i32 1, !"wchar_size", i32 4}
!1 = !{!"clang version 10.0.0-4ubuntu1 "}
